; Function Attrs: nounwind uwtable
define dso_local noundef zeroext i1 @waiting_for_node_power_down(ptr noundef readonly captures(none) %0) local_unnamed_addr #0 {
  %2 = getelementptr inbounds nuw i8, ptr %0, i64 320
  %3 = load i32, ptr %2, align 8
  %4 = and i32 %3, 262144
  %.not = icmp eq i32 %4, 0
  br i1 %.not, label %21, label %5

5:                                                ; preds = %1
  %6 = getelementptr inbounds nuw i8, ptr %0, i64 360
  %7 = load i64, ptr %6, align 8
  %.not7 = icmp eq i64 %7, 0
  br i1 %.not7, label %21, label %8

8:                                                ; preds = %5
  %9 = getelementptr inbounds nuw i8, ptr %0, i64 32
  %10 = load i64, ptr %9, align 8
  %11 = load i16, ptr getelementptr inbounds nuw (i8, ptr @slurm_conf, i64 1384), align 8
  %12 = zext i16 %11 to i64
  %13 = add nsw i64 %7, %12
  %14 = icmp slt i64 %10, %13
  br i1 %14, label %15, label %21

15:                                               ; preds = %8
  %16 = tail call i32 @get_log_level() #15
  %17 = icmp sgt i32 %16, 4
  br i1 %17, label %18, label %21

18:                                               ; preds = %15
  %19 = getelementptr inbounds nuw i8, ptr %0, i64 272
  %20 = load ptr, ptr %19, align 8
  tail call void (i32, ptr, ...) @log_var(i32 noundef 5, ptr noundef nonnull @.str.130, ptr noundef %20) #15
  br label %21

21:                                               ; preds = %1, %5, %8, %15, %18
  %.0 = phi i1 [ true, %18 ], [ true, %15 ], [ false, %8 ], [ false, %5 ], [ false, %1 ]
  ret i1 %.0
}